Certificate:
    Data:
        Version: 3 (0x2)
        Serial Number: 10001096701270395585 (0x8acb0876338d8ac1)
    Signature Algorithm: sha256WithRSAEncryption
        Issuer: C=US, ST=NC, O=RTPCompany, OU=IT, CN=rtp.example.test/emailAddress=info@rtp.example.test
        Validity
            Not Before: Feb  2 17:05:11 2015 GMT
            Not After : Feb  1 17:05:11 2018 GMT
        Subject: C=US, ST=NC, O=RTPCompany, OU=IT, CN=rtp.example.test/emailAddress=info@rtp.example.test
        Subject Public Key Info:
            Public Key Algorithm: rsaEncryption
                Public-Key: (2048 bit)
                Modulus:
                    00:bf:ef:d3:d1:b0:4a:b3:5f:0b:2b:72:78:b6:05:
                    6a:81:c8:b0:34:00:32:6e:65:c1:35:f6:f6:f1:1f:
                    6a:80:3a:29:6a:06:72:0f:94:7c:8a:19:1c:f6:af:
                    71:b0:2f:9f:2a:bf:c4:95:e5:ee:6c:60:44:8b:9c:
                    5c:60:0d:2e:aa:ea:98:d4:41:34:f8:c8:4f:48:78:
                    e0:d6:47:e6:92:c6:45:9e:56:d4:5c:0d:bd:11:5a:
                    79:23:73:6f:18:33:75:c2:ea:40:e2:48:11:4d:0c:
                    e6:91:6a:70:61:98:7f:70:ef:5e:b1:e5:d2:8e:04:
                    1c:b2:e8:b7:88:20:75:46:9f:83:42:3c:a3:67:26:
                    5c:4b:68:f8:ba:9b:ad:8a:39:d7:d0:bb:7a:92:03:
                    74:1f:00:50:b0:89:81:cc:80:c2:1f:1c:d2:0e:c9:
                    00:a8:82:ba:b7:4e:8d:ab:09:c2:f6:13:06:5f:f6:
                    78:2d:91:b3:4d:26:fc:12:5d:f5:24:8b:70:20:70:
                    64:e4:b9:cf:c5:e3:c1:34:aa:9e:23:4c:8e:04:8b:
                    b5:16:db:3c:a2:12:0d:c4:39:53:ba:49:f6:ac:d2:
                    04:cc:a4:2c:c2:82:c7:7f:7f:ef:3c:3b:53:92:92:
                    92:4e:56:15:be:1e:2f:52:7b:e1:2e:90:fa:e0:1e:
                    0c:37
                Exponent: 65537 (0x10001)
        X509v3 extensions:
            X509v3 Subject Key Identifier: 
                0A:DB:11:49:05:F4:79:4C:29:24:C8:42:B7:28:B9:29:65:45:3A:19
            X509v3 Authority Key Identifier: 
                keyid:0A:DB:11:49:05:F4:79:4C:29:24:C8:42:B7:28:B9:29:65:45:3A:19

            X509v3 Basic Constraints: 
                CA:TRUE
    Signature Algorithm: sha256WithRSAEncryption
         85:49:38:ea:a2:66:74:ad:34:14:fa:2f:40:f0:cb:30:60:e0:
         06:56:13:ab:db:92:cf:70:21:ce:b8:5e:cb:01:33:79:65:9c:
         92:80:85:6f:b3:a8:83:fd:05:ff:b5:d6:3a:d0:7e:f9:9e:16:
         8d:e3:eb:49:3b:d5:c3:73:1d:15:80:0c:f1:cc:5a:52:f7:a3:
         18:20:5d:c7:77:2c:57:89:fe:79:c6:1e:de:fb:52:36:56:08:
         9d:bf:f7:ac:ee:45:40:4e:dc:a7:9a:c6:82:79:c7:99:b1:14:
         de:b8:2d:af:20:fb:91:ed:bf:15:c7:c1:fc:c2:e3:57:43:88:
         85:88:3e:0a:80:ed:d5:4b:da:fc:b1:ee:a7:a5:a8:88:a0:64:
         00:d3:53:ee:82:83:03:71:b5:f3:63:dc:d7:56:c9:87:33:8b:
         98:78:9e:a4:8b:ed:e0:ee:39:c9:c4:30:91:54:ca:cb:b2:8f:
         43:b7:0b:6e:36:49:bd:55:6e:6b:0b:b3:42:af:57:18:d2:27:
         18:7d:c1:ec:b9:69:58:40:3b:5e:17:74:29:23:6d:f4:3a:92:
         a8:cc:81:f5:c9:95:3c:79:18:c1:64:88:07:51:29:9d:64:f4:
         e2:10:66:7b:1b:ae:24:32:8b:ef:a8:5d:a7:46:ed:5d:b3:fb:
         72:80:36:ac
-----BEGIN CERTIFICATE-----
MIIDzTCCArWgAwIBAgIJAIrLCHYzjYrBMA0GCSqGSIb3DQEBCwUAMH0xCzAJBgNV
BAYTAlVTMQswCQYDVQQIDAJOQzETMBEGA1UECgwKUlRQQ29tcGFueTELMAkGA1UE
CwwCSVQxGTAXBgNVBAMMEHJ0cC5leGFtcGxlLnRlc3QxJDAiBgkqhkiG9w0BCQEW
FWluZm9AcnRwLmV4YW1wbGUudGVzdDAeFw0xNTAyMDIxNzA1MTFaFw0xODAyMDEx
NzA1MTFaMH0xCzAJBgNVBAYTAlVTMQswCQYDVQQIDAJOQzETMBEGA1UECgwKUlRQ
Q29tcGFueTELMAkGA1UECwwCSVQxGTAXBgNVBAMMEHJ0cC5leGFtcGxlLnRlc3Qx
JDAiBgkqhkiG9w0BCQEWFWluZm9AcnRwLmV4YW1wbGUudGVzdDCCASIwDQYJKoZI
hvcNAQEBBQADggEPADCCAQoCggEBAL/v09GwSrNfCytyeLYFaoHIsDQAMm5lwTX2
9vEfaoA6KWoGcg+UfIoZHPavcbAvnyq/xJXl7mxgRIucXGANLqrqmNRBNPjIT0h4
4NZH5pLGRZ5W1FwNvRFaeSNzbxgzdcLqQOJIEU0M5pFqcGGYf3DvXrHl0o4EHLLo
t4ggdUafg0I8o2cmXEto+LqbrYo519C7epIDdB8AULCJgcyAwh8c0g7JAKiCurdO
jasJwvYTBl/2eC2Rs00m/BJd9SSLcCBwZOS5z8XjwTSqniNMjgSLtRbbPKISDcQ5
U7pJ9qzSBMykLMKCx39/7zw7U5KSkk5WFb4eL1J74S6Q+uAeDDcCAwEAAaNQME4w
HQYDVR0OBBYEFArbEUkF9HlMKSTIQrcouSllRToZMB8GA1UdIwQYMBaAFArbEUkF
9HlMKSTIQrcouSllRToZMAwGA1UdEwQFMAMBAf8wDQYJKoZIhvcNAQELBQADggEB
AIVJOOqiZnStNBT6L0DwyzBg4AZWE6vbks9wIc64XssBM3llnJKAhW+zqIP9Bf+1
1jrQfvmeFo3j60k71cNzHRWADPHMWlL3oxggXcd3LFeJ/nnGHt77UjZWCJ2/96zu
RUBO3KeaxoJ5x5mxFN64La8g+5HtvxXHwfzC41dDiIWIPgqA7dVL2vyx7qelqIig
ZADTU+6CgwNxtfNj3NdWyYczi5h4nqSL7eDuOcnEMJFUysuyj0O3C242Sb1VbmsL
s0KvVxjSJxh9wey5aVhAO14XdCkjbfQ6kqjMgfXJlTx5GMFkiAdRKZ1k9OIQZnsb
riQyi++oXadG7V2z+3KANqw=
-----END CERTIFICATE-----
